; Function Attrs: mustprogress nofree norecurse nosync nounwind willreturn memory(read, inaccessiblemem: none) uwtable
define noundef ptr @_ZNK5arrow3ipc7Message6headerEv(ptr noundef nonnull readonly align 8 captures(none) dereferenceable(8) %0) local_unnamed_addr #6 align 2 {
  %2 = load ptr, ptr %0, align 8, !tbaa !15
  %3 = getelementptr inbounds nuw i8, ptr %2, i64 16
  %4 = load ptr, ptr %3, align 8, !tbaa !72
  %5 = load i32, ptr %4, align 4, !tbaa !23
  %6 = sext i32 %5 to i64
  %7 = sub nsw i64 0, %6
  %8 = getelementptr inbounds i8, ptr %4, i64 %7
  %9 = load i16, ptr %8, align 2, !tbaa !77
  %10 = icmp ugt i16 %9, 8
  br i1 %10, label %_ZNK22arrow_vendored_private11flatbuffers5Table22GetOptionalFieldOffsetEt.exit.i.i.i.i, label %_ZNK5arrow3ipc7Message11MessageImpl6headerEv.exit

_ZNK22arrow_vendored_private11flatbuffers5Table22GetOptionalFieldOffsetEt.exit.i.i.i.i: ; preds = %1
  %11 = getelementptr inbounds nuw i8, ptr %8, i64 8
  %12 = load i16, ptr %11, align 2, !tbaa !77
  %.not.i.i.i.i = icmp eq i16 %12, 0
  br i1 %.not.i.i.i.i, label %_ZNK5arrow3ipc7Message11MessageImpl6headerEv.exit, label %13

13:                                               ; preds = %_ZNK22arrow_vendored_private11flatbuffers5Table22GetOptionalFieldOffsetEt.exit.i.i.i.i
  %14 = zext i16 %12 to i64
  %15 = getelementptr inbounds nuw i8, ptr %4, i64 %14
  %16 = load i32, ptr %15, align 4, !tbaa !23
  %17 = zext i32 %16 to i64
  %18 = getelementptr inbounds nuw i8, ptr %15, i64 %17
  br label %_ZNK5arrow3ipc7Message11MessageImpl6headerEv.exit

_ZNK5arrow3ipc7Message11MessageImpl6headerEv.exit: ; preds = %1, %_ZNK22arrow_vendored_private11flatbuffers5Table22GetOptionalFieldOffsetEt.exit.i.i.i.i, %13
  %19 = phi ptr [ %18, %13 ], [ null, %_ZNK22arrow_vendored_private11flatbuffers5Table22GetOptionalFieldOffsetEt.exit.i.i.i.i ], [ null, %1 ]
  ret ptr %19
}